issuer :/C=DE/ST=HESSEN/L=DARMSTADT/O=TU DARMSTADT/OU=ITI/CN=Andrei Popovici/Email=apopovic@iti.informatik.tu-darmstadt.de
subject:/C=XX/ST=TST_PROV/L=TST_CITY/O=TST_ORG/OU=TST_DEPT/CN=THE SERVER/Email=theserv@dom.xx
serial :02

Certificate:
    Data:
        Version: 1 (0x0)
        Serial Number: 2 (0x2)
        Signature Algorithm: md5WithRSAEncryption
        Issuer: C=DE, ST=HESSEN, L=DARMSTADT, O=TU DARMSTADT, OU=ITI, CN=Andrei Popovici/Email=apopovic@iti.informatik.tu-darmstadt.de
        Validity
            Not Before: Mar  5 08:56:15 1999 GMT
            Not After : Mar  4 08:56:15 2000 GMT
        Subject: C=XX, ST=TST_PROV, L=TST_CITY, O=TST_ORG, OU=TST_DEPT, CN=THE SERVER/Email=theserv@dom.xx
        Subject Public Key Info:
            Public Key Algorithm: rsaEncryption
            RSA Public Key: (512 bit)
                Modulus (512 bit):
                    00:d5:5e:7d:37:e5:b1:e8:6f:4b:46:8b:a0:05:91:
                    c4:46:64:8f:d8:6d:62:26:e7:2b:7f:6f:a7:99:c6:
                    79:39:fa:12:22:ac:f7:44:34:88:d6:07:09:e5:a5:
                    a3:b8:7d:a5:28:9f:58:96:4a:1d:95:e3:f4:5e:14:
                    7a:d6:cb:eb:7d
                Exponent: 65537 (0x10001)
    Signature Algorithm: md5WithRSAEncryption
        58:0a:67:92:db:d6:37:ad:59:8d:c2:74:60:a3:b7:c7:c7:91:
        29:61:85:16:cc:80:70:c7:53:9b:94:2e:1f:36:3c:3f:9e:98:
        9f:a0:6c:2c:25:ee:58:51:57:71:a9:bb:86:9c:fc:fe:dd:ea:
        f4:1f:1d:2e:74:f2:cd:03:be:6d

-----BEGIN CERTIFICATE-----
MIICITCCAcsCAQIwDQYJKoZIhvcNAQEEBQAwgakxCzAJBgNVBAYTAkRFMQ8wDQYD
VQQIEwZIRVNTRU4xEjAQBgNVBAcTCURBUk1TVEFEVDEVMBMGA1UEChMMVFUgREFS
TVNUQURUMQwwCgYDVQQLEwNJVEkxGDAWBgNVBAMTD0FuZHJlaSBQb3BvdmljaTE2
MDQGCSqGSIb3DQEJARYnYXBvcG92aWNAaXRpLmluZm9ybWF0aWsudHUtZGFybXN0
YWR0LmRlMB4XDTk5MDMwNTA4NTYxNVoXDTAwMDMwNDA4NTYxNVowgYwxCzAJBgNV
BAYTAlhYMREwDwYDVQQIFghUU1RfUFJPVjERMA8GA1UEBxYIVFNUX0NJVFkxEDAO
BgNVBAoWB1RTVF9PUkcxETAPBgNVBAsWCFRTVF9ERVBUMRMwEQYDVQQDEwpUSEUg
U0VSVkVSMR0wGwYJKoZIhvcNAQkBFg50aGVzZXJ2QGRvbS54eDBcMA0GCSqGSIb3
DQEBAQUAA0sAMEgCQQDVXn035bHob0tGi6AFkcRGZI/YbWIm5yt/b6eZxnk5+hIi
rPdENIjWBwnlpaO4faUon1iWSh2V4/ReFHrWy+t9AgMBAAEwDQYJKoZIhvcNAQEE
BQADQQBYCmeS29Y3rVmNwnRgo7fHx5EpYYUWzIBwx1OblC4fNjw/npifoGwsJe5Y
UVdxqbuGnPz+3er0Hx0udPLNA75t
-----END CERTIFICATE-----

